target datalayout = "e-m:e-p270:32:32-p271:32:32-p272:64:64-i64:64-i128:128-f80:128-n8:16:32:64-S128"
target triple = "x86_64-pc-linux-gnu"

%"struct.Luau::CodeGen::X64::RegisterX64" = type { i8 }
%"class.Luau::CodeGen::UnwindBuilderWin" = type <{ %"class.Luau::CodeGen::UnwindBuilder", i64, [1024 x i8], ptr, %"class.std::vector", %"class.std::vector.0", i8, %"struct.Luau::CodeGen::X64::RegisterX64", i8, [5 x i8] }>
%"class.Luau::CodeGen::UnwindBuilder" = type { ptr }
%"class.std::vector" = type { %"struct.std::_Vector_base" }
%"struct.std::_Vector_base" = type { %"struct.std::_Vector_base<Luau::CodeGen::UnwindFunctionWin, std::allocator<Luau::CodeGen::UnwindFunctionWin>>::_Vector_impl" }
%"struct.std::_Vector_base<Luau::CodeGen::UnwindFunctionWin, std::allocator<Luau::CodeGen::UnwindFunctionWin>>::_Vector_impl" = type { %"struct.std::_Vector_base<Luau::CodeGen::UnwindFunctionWin, std::allocator<Luau::CodeGen::UnwindFunctionWin>>::_Vector_impl_data" }
%"struct.std::_Vector_base<Luau::CodeGen::UnwindFunctionWin, std::allocator<Luau::CodeGen::UnwindFunctionWin>>::_Vector_impl_data" = type { ptr, ptr, ptr }
%"class.std::vector.0" = type { %"struct.std::_Vector_base.1" }
%"struct.std::_Vector_base.1" = type { %"struct.std::_Vector_base<Luau::CodeGen::UnwindCodeWin, std::allocator<Luau::CodeGen::UnwindCodeWin>>::_Vector_impl" }
%"struct.std::_Vector_base<Luau::CodeGen::UnwindCodeWin, std::allocator<Luau::CodeGen::UnwindCodeWin>>::_Vector_impl" = type { %"struct.std::_Vector_base<Luau::CodeGen::UnwindCodeWin, std::allocator<Luau::CodeGen::UnwindCodeWin>>::_Vector_impl_data" }
%"struct.std::_Vector_base<Luau::CodeGen::UnwindCodeWin, std::allocator<Luau::CodeGen::UnwindCodeWin>>::_Vector_impl_data" = type { ptr, ptr, ptr }

; Function Attrs: mustprogress nounwind uwtable
define linkonce_odr dso_local noundef i64 @_ZNKSt6vectorIN4Luau7CodeGen17UnwindFunctionWinESaIS2_EE4sizeEv(ptr noundef nonnull align 8 dereferenceable(24) %0) #0 comdat align 2 {
  %2 = alloca ptr, align 8
  store ptr %0, ptr %2, align 8
  %3 = load ptr, ptr %2, align 8
  %4 = getelementptr inbounds %"struct.std::_Vector_base", ptr %3, i32 0, i32 0
  %5 = getelementptr inbounds %"struct.std::_Vector_base<Luau::CodeGen::UnwindFunctionWin, std::allocator<Luau::CodeGen::UnwindFunctionWin>>::_Vector_impl_data", ptr %4, i32 0, i32 1
  %6 = load ptr, ptr %5, align 8
  %7 = getelementptr inbounds %"struct.std::_Vector_base", ptr %3, i32 0, i32 0
  %8 = getelementptr inbounds %"struct.std::_Vector_base<Luau::CodeGen::UnwindFunctionWin, std::allocator<Luau::CodeGen::UnwindFunctionWin>>::_Vector_impl_data", ptr %7, i32 0, i32 0
  %9 = load ptr, ptr %8, align 8
  %10 = ptrtoint ptr %6 to i64
  %11 = ptrtoint ptr %9 to i64
  %12 = sub i64 %10, %11
  %13 = sdiv exact i64 %12, 12
  ret i64 %13
}

; Function Attrs: mustprogress nounwind uwtable
define dso_local noundef i64 @_ZNK4Luau7CodeGen16UnwindBuilderWin17getUnwindInfoSizeEm(ptr noundef nonnull align 8 dereferenceable(1099) %0, i64 noundef %1) unnamed_addr #0 align 2 {
  %3 = alloca ptr, align 8
  %4 = alloca i64, align 8
  store ptr %0, ptr %3, align 8
  store i64 %1, ptr %4, align 8
  %5 = load ptr, ptr %3, align 8
  %6 = getelementptr inbounds %"class.Luau::CodeGen::UnwindBuilderWin", ptr %5, i32 0, i32 4
  %7 = call noundef i64 @_ZNKSt6vectorIN4Luau7CodeGen17UnwindFunctionWinESaIS2_EE4sizeEv(ptr noundef nonnull align 8 dereferenceable(24) %6) #8
  %8 = mul i64 12, %7
  %9 = getelementptr inbounds %"class.Luau::CodeGen::UnwindBuilderWin", ptr %5, i32 0, i32 3
  %10 = load ptr, ptr %9, align 8
  %11 = getelementptr inbounds %"class.Luau::CodeGen::UnwindBuilderWin", ptr %5, i32 0, i32 2
  %12 = getelementptr inbounds [1024 x i8], ptr %11, i64 0, i64 0
  %13 = ptrtoint ptr %10 to i64
  %14 = ptrtoint ptr %12 to i64
  %15 = sub i64 %13, %14
  %16 = add i64 %8, %15
  ret i64 %16
}