; Function Attrs: mustprogress nofree norecurse nosync nounwind willreturn memory(argmem: read) uwtable
define dso_local noundef i64 @_ZNK4Luau7CodeGen16UnwindBuilderWin17getUnwindInfoSizeEm(ptr noundef nonnull align 8 dereferenceable(1099) %0, i64 %1) unnamed_addr #1 align 2 {
  %3 = getelementptr inbounds i8, ptr %0, i64 1048
  %4 = getelementptr inbounds i8, ptr %0, i64 1056
  %5 = load ptr, ptr %4, align 8
  %6 = load ptr, ptr %3, align 8
  %7 = ptrtoint ptr %5 to i64
  %8 = ptrtoint ptr %6 to i64
  %9 = getelementptr inbounds i8, ptr %0, i64 1040
  %10 = load ptr, ptr %9, align 8
  %11 = getelementptr inbounds i8, ptr %0, i64 16
  %12 = ptrtoint ptr %10 to i64
  %13 = ptrtoint ptr %11 to i64
  %14 = add i64 %13, %8
  %15 = sub i64 %7, %14
  %16 = add i64 %15, %12
  ret i64 %16
}